#include <math.h>
#include <stdio.h>
#include <stdlib.h>
#include <string.h>


int main()
{
   int i,a[10000],n;
   scanf("%d",&i);
   
   if(i==1) printf("End\n");
   else {
        for(n=2;;n++)
        {
                a[1]=i;
                   if (a[n-1]%2==1) {a[n]=a[n-1]*3+1 ;printf("%d*3+1=%d\n",a[n-1],a[n]);}
                   else if(a[n-1]%2==0) {a[n]=a[n-1]/2;printf("%d/2=%d\n",a[n-1],a[n]);}
                 if (a[n]==1) { printf("End\n"); break;}
                   }}
                
                   
                   }