; ModuleID = 'source-C-CXX/33/1989.c'
source_filename = "source-C-CXX/33/1989.c"
target datalayout = "e-m:e-p270:32:32-p271:32:32-p272:64:64-i64:64-f80:128-n8:16:32:64-S128"
target triple = "x86_64-pc-linux-gnu"

@.str = private unnamed_addr constant [3 x i8] c"%d\00", align 1
@.str.2 = private unnamed_addr constant [11 x i8] c"%d*3+1=%d\0A\00", align 1
@.str.3 = private unnamed_addr constant [9 x i8] c"%d/2=%d\0A\00", align 1
@str.4 = private unnamed_addr constant [4 x i8] c"End\00", align 1

; Function Attrs: nofree nounwind sspstrong uwtable
define dso_local i32 @main() local_unnamed_addr #0 {
  %1 = alloca i32, align 4
  %2 = alloca [10000 x i32], align 16
  %3 = bitcast i32* %1 to i8*
  call void @llvm.lifetime.start.p0i8(i64 4, i8* nonnull %3) #4
  %4 = bitcast [10000 x i32]* %2 to i8*
  call void @llvm.lifetime.start.p0i8(i64 40000, i8* nonnull %4) #4
  %5 = call i32 (i8*, ...) @__isoc99_scanf(i8* getelementptr inbounds ([3 x i8], [3 x i8]* @.str, i64 0, i64 0), i32* nonnull %1)
  %6 = load i32, i32* %1, align 4, !tbaa !5
  %7 = icmp eq i32 %6, 1
  br i1 %7, label %35, label %8

8:                                                ; preds = %0
  %9 = getelementptr inbounds [10000 x i32], [10000 x i32]* %2, i64 0, i64 1
  br label %10

10:                                               ; preds = %32, %8
  %11 = phi i32 [ %34, %32 ], [ %6, %8 ]
  %12 = phi i64 [ %33, %32 ], [ 2, %8 ]
  store i32 %11, i32* %9, align 4, !tbaa !5
  %13 = add nsw i64 %12, -1
  %14 = getelementptr inbounds [10000 x i32], [10000 x i32]* %2, i64 0, i64 %13
  %15 = load i32, i32* %14, align 4, !tbaa !5
  %16 = srem i32 %15, 2
  %17 = sdiv i32 %15, 2
  switch i32 %16, label %18 [
    i32 1, label %21
    i32 0, label %26
  ]

18:                                               ; preds = %10
  %19 = getelementptr inbounds [10000 x i32], [10000 x i32]* %2, i64 0, i64 %12
  %20 = load i32, i32* %19, align 4, !tbaa !5
  br label %29

21:                                               ; preds = %10
  %22 = mul nsw i32 %15, 3
  %23 = add nsw i32 %22, 1
  %24 = getelementptr inbounds [10000 x i32], [10000 x i32]* %2, i64 0, i64 %12
  store i32 %23, i32* %24, align 4, !tbaa !5
  %25 = call i32 (i8*, ...) @printf(i8* nonnull dereferenceable(1) getelementptr inbounds ([11 x i8], [11 x i8]* @.str.2, i64 0, i64 0), i32 %15, i32 %23)
  br label %29

26:                                               ; preds = %10
  %27 = getelementptr inbounds [10000 x i32], [10000 x i32]* %2, i64 0, i64 %12
  store i32 %17, i32* %27, align 4, !tbaa !5
  %28 = call i32 (i8*, ...) @printf(i8* nonnull dereferenceable(1) getelementptr inbounds ([9 x i8], [9 x i8]* @.str.3, i64 0, i64 0), i32 %15, i32 %17)
  br label %29

29:                                               ; preds = %18, %26, %21
  %30 = phi i32 [ %20, %18 ], [ %17, %26 ], [ %23, %21 ]
  %31 = icmp eq i32 %30, 1
  br i1 %31, label %35, label %32

32:                                               ; preds = %29
  %33 = add nuw i64 %12, 1
  %34 = load i32, i32* %1, align 4, !tbaa !5
  br label %10

35:                                               ; preds = %29, %0
  %36 = phi i8* [ getelementptr inbounds ([4 x i8], [4 x i8]* @str.4, i64 0, i64 0), %0 ], [ getelementptr inbounds ([4 x i8], [4 x i8]* @str.4, i64 0, i64 0), %29 ]
  %37 = call i32 @puts(i8* nonnull dereferenceable(1) %36)
  call void @llvm.lifetime.end.p0i8(i64 40000, i8* nonnull %4) #4
  call void @llvm.lifetime.end.p0i8(i64 4, i8* nonnull %3) #4
  ret i32 0
}

; Function Attrs: argmemonly mustprogress nofree nosync nounwind willreturn
declare void @llvm.lifetime.start.p0i8(i64 immarg, i8* nocapture) #1

; Function Attrs: nofree nounwind
declare noundef i32 @__isoc99_scanf(i8* nocapture noundef readonly, ...) local_unnamed_addr #2

; Function Attrs: nofree nounwind
declare noundef i32 @printf(i8* nocapture noundef readonly, ...) local_unnamed_addr #2

; Function Attrs: argmemonly mustprogress nofree nosync nounwind willreturn
declare void @llvm.lifetime.end.p0i8(i64 immarg, i8* nocapture) #1

; Function Attrs: nofree nounwind
declare noundef i32 @puts(i8* nocapture noundef readonly) local_unnamed_addr #3


!llvm.module.flags = !{!0, !1, !2, !3}
!llvm.ident = !{!4}

!0 = !{i32 1, !"wchar_size", i32 4}
!1 = !{i32 7, !"PIC Level", i32 2}
!2 = !{i32 7, !"PIE Level", i32 2}
!3 = !{i32 7, !"uwtable", i32 1}
!4 = !{!"clang version 13.0.0"}
!5 = !{!6, !6, i64 0}
!6 = !{!"int", !7, i64 0}
!7 = !{!"omnipotent char", !8, i64 0}
!8 = !{!"Simple C/C++ TBAA"}
